(dp1
S'failed'
p2
(lp3
S'7'
asS'source_names'
p4
(lp5
S'.'
asS'ids'
p6
(dp7
I1
(S'/home/patrick/Programming/qgis_plugins/FlowMapArrowCurver/test/test_flow_map_arrow_curver_dialog.py'
S'FlowMapArrowCurver.test.test_flow_map_arrow_curver_dialog'
p8
S'FlowMapArrowCurverDialogTest.test_dialog_cancel'
tp9
sI2
(S'/home/patrick/Programming/qgis_plugins/FlowMapArrowCurver/test/test_flow_map_arrow_curver_dialog.py'
g8
S'FlowMapArrowCurverDialogTest.test_dialog_ok'
tp10
sI3
(S'/home/patrick/Programming/qgis_plugins/FlowMapArrowCurver/test/test_init.py'
S'FlowMapArrowCurver.test.test_init'
S'TestInit.test_read_init'
tp11
sI4
(S'/home/patrick/Programming/qgis_plugins/FlowMapArrowCurver/test/test_qgis_environment.py'
S'FlowMapArrowCurver.test.test_qgis_environment'
p12
S'QGISTest.test_projection'
tp13
sI5
(S'/home/patrick/Programming/qgis_plugins/FlowMapArrowCurver/test/test_qgis_environment.py'
g12
S'QGISTest.test_qgis_environment'
tp14
sI6
(S'/home/patrick/Programming/qgis_plugins/FlowMapArrowCurver/test/test_resources.py'
S'FlowMapArrowCurver.test.test_resources'
S'FlowMapArrowCurverDialogTest.test_icon_png'
tp15
sI7
(S'/home/patrick/Programming/qgis_plugins/FlowMapArrowCurver/test/test_translations.py'
S'FlowMapArrowCurver.test.test_translations'
S'SafeTranslationsTest.test_qgis_translations'
tp16
ss.